target datalayout = "e-m:e-p270:32:32-p271:32:32-p272:64:64-i64:64-i128:128-f80:128-n8:16:32:64-S128"
target triple = "x86_64-unknown-linux-gnu"

%"struct.std::thread::_State" = type { ptr }
%"struct.std::thread::_State_impl.168" = type { %"struct.std::thread::_State", %"struct.std::thread::_Invoker.169" }
%"struct.std::thread::_Invoker.169" = type { %"class.std::tuple.170" }
%"class.std::tuple.170" = type { %"struct.std::_Tuple_impl.171" }
%"struct.std::_Tuple_impl.171" = type { %"struct.std::_Tuple_impl.172", %"struct.std::_Head_base.174" }
%"struct.std::_Tuple_impl.172" = type { %"struct.std::_Head_base.173" }
%"struct.std::_Head_base.173" = type { ptr }
%"struct.std::_Head_base.174" = type { ptr }

; Function Attrs: mustprogress nounwind uwtable
define internal noundef nonnull align 8 dereferenceable(8) ptr @_ZNSt10_Head_baseILm1EPN12_GLOBAL__N_118LockWhenTestStructELb0EE7_M_headERS3_(ptr noundef nonnull align 8 dereferenceable(8) %__b) #7 align 2 {
entry:
  %__b.addr = alloca ptr, align 8
  store ptr %__b, ptr %__b.addr, align 8
  %0 = load ptr, ptr %__b.addr, align 8
  %_M_head_impl = getelementptr inbounds %"struct.std::_Head_base.173", ptr %0, i32 0, i32 0
  ret ptr %_M_head_impl
}

; Function Attrs: mustprogress nounwind uwtable
define internal noundef nonnull align 8 dereferenceable(8) ptr @_ZNSt10_Head_baseILm0EPFvPN12_GLOBAL__N_118LockWhenTestStructEELb0EE7_M_headERS5_(ptr noundef nonnull align 8 dereferenceable(8) %__b) #7 align 2 {
entry:
  %__b.addr = alloca ptr, align 8
  store ptr %__b, ptr %__b.addr, align 8
  %0 = load ptr, ptr %__b.addr, align 8
  %_M_head_impl = getelementptr inbounds %"struct.std::_Head_base.174", ptr %0, i32 0, i32 0
  ret ptr %_M_head_impl
}

; Function Attrs: mustprogress nounwind uwtable
define internal noundef nonnull align 8 dereferenceable(8) ptr @_ZNSt11_Tuple_implILm1EJPN12_GLOBAL__N_118LockWhenTestStructEEE7_M_headERS3_(ptr noundef nonnull align 8 dereferenceable(8) %__t) #7 align 2 {
entry:
  %__t.addr = alloca ptr, align 8
  store ptr %__t, ptr %__t.addr, align 8
  %0 = load ptr, ptr %__t.addr, align 8
  %call = call noundef nonnull align 8 dereferenceable(8) ptr @_ZNSt10_Head_baseILm1EPN12_GLOBAL__N_118LockWhenTestStructELb0EE7_M_headERS3_(ptr noundef nonnull align 8 dereferenceable(8) %0) #3
  ret ptr %call
}

; Function Attrs: mustprogress nounwind uwtable
define internal noundef nonnull align 8 dereferenceable(8) ptr @_ZNSt11_Tuple_implILm0EJPFvPN12_GLOBAL__N_118LockWhenTestStructEES2_EE7_M_headERS5_(ptr noundef nonnull align 8 dereferenceable(16) %__t) #7 align 2 {
entry:
  %__t.addr = alloca ptr, align 8
  store ptr %__t, ptr %__t.addr, align 8
  %0 = load ptr, ptr %__t.addr, align 8
  %add.ptr = getelementptr inbounds i8, ptr %0, i64 8
  %call = call noundef nonnull align 8 dereferenceable(8) ptr @_ZNSt10_Head_baseILm0EPFvPN12_GLOBAL__N_118LockWhenTestStructEELb0EE7_M_headERS5_(ptr noundef nonnull align 8 dereferenceable(8) %add.ptr) #3
  ret ptr %call
}

; Function Attrs: mustprogress uwtable
define internal void @_ZSt13__invoke_implIvPFvPN12_GLOBAL__N_118LockWhenTestStructEEJS2_EET_St14__invoke_otherOT0_DpOT1_(ptr noundef nonnull align 8 dereferenceable(8) %__f, ptr noundef nonnull align 8 dereferenceable(8) %__args) #4 {
entry:
  %__f.addr = alloca ptr, align 8
  %__args.addr = alloca ptr, align 8
  store ptr %__f, ptr %__f.addr, align 8
  store ptr %__args, ptr %__args.addr, align 8
  %0 = load ptr, ptr %__f.addr, align 8
  %1 = load ptr, ptr %0, align 8
  %2 = load ptr, ptr %__args.addr, align 8
  %3 = load ptr, ptr %2, align 8
  call void %1(ptr noundef %3)
  ret void
}

; Function Attrs: mustprogress nounwind uwtable
define internal noundef nonnull align 8 dereferenceable(8) ptr @_ZSt12__get_helperILm1EPN12_GLOBAL__N_118LockWhenTestStructEJEERT0_RSt11_Tuple_implIXT_EJS3_DpT1_EE(ptr noundef nonnull align 8 dereferenceable(8) %__t) #7 {
entry:
  %__t.addr = alloca ptr, align 8
  store ptr %__t, ptr %__t.addr, align 8
  %0 = load ptr, ptr %__t.addr, align 8
  %call = call noundef nonnull align 8 dereferenceable(8) ptr @_ZNSt11_Tuple_implILm1EJPN12_GLOBAL__N_118LockWhenTestStructEEE7_M_headERS3_(ptr noundef nonnull align 8 dereferenceable(8) %0) #3
  ret ptr %call
}

; Function Attrs: mustprogress nounwind uwtable
define internal noundef nonnull align 8 dereferenceable(8) ptr @_ZSt12__get_helperILm0EPFvPN12_GLOBAL__N_118LockWhenTestStructEEJS2_EERT0_RSt11_Tuple_implIXT_EJS5_DpT1_EE(ptr noundef nonnull align 8 dereferenceable(16) %__t) #7 {
entry:
  %__t.addr = alloca ptr, align 8
  store ptr %__t, ptr %__t.addr, align 8
  %0 = load ptr, ptr %__t.addr, align 8
  %call = call noundef nonnull align 8 dereferenceable(8) ptr @_ZNSt11_Tuple_implILm0EJPFvPN12_GLOBAL__N_118LockWhenTestStructEES2_EE7_M_headERS5_(ptr noundef nonnull align 8 dereferenceable(16) %0) #3
  ret ptr %call
}

; Function Attrs: mustprogress uwtable
define internal void @_ZSt8__invokeIPFvPN12_GLOBAL__N_118LockWhenTestStructEEJS2_EENSt15__invoke_resultIT_JDpT0_EE4typeEOS6_DpOS7_(ptr noundef nonnull align 8 dereferenceable(8) %__fn, ptr noundef nonnull align 8 dereferenceable(8) %__args) #4 {
entry:
  %__fn.addr = alloca ptr, align 8
  %__args.addr = alloca ptr, align 8
  store ptr %__fn, ptr %__fn.addr, align 8
  store ptr %__args, ptr %__args.addr, align 8
  %0 = load ptr, ptr %__fn.addr, align 8
  %1 = load ptr, ptr %__args.addr, align 8
  call void @_ZSt13__invoke_implIvPFvPN12_GLOBAL__N_118LockWhenTestStructEEJS2_EET_St14__invoke_otherOT0_DpOT1_(ptr noundef nonnull align 8 dereferenceable(8) %0, ptr noundef nonnull align 8 dereferenceable(8) %1)
  ret void
}

; Function Attrs: mustprogress nounwind uwtable
define internal noundef nonnull align 8 dereferenceable(8) ptr @_ZSt3getILm1EJPFvPN12_GLOBAL__N_118LockWhenTestStructEES2_EEONSt13tuple_elementIXT_ESt5tupleIJDpT0_EEE4typeEOS9_(ptr noundef nonnull align 8 dereferenceable(16) %__t) #7 {
entry:
  %__t.addr = alloca ptr, align 8
  store ptr %__t, ptr %__t.addr, align 8
  %0 = load ptr, ptr %__t.addr, align 8
  %call = call noundef nonnull align 8 dereferenceable(8) ptr @_ZSt12__get_helperILm1EPN12_GLOBAL__N_118LockWhenTestStructEJEERT0_RSt11_Tuple_implIXT_EJS3_DpT1_EE(ptr noundef nonnull align 8 dereferenceable(8) %0) #3
  ret ptr %call
}

; Function Attrs: mustprogress nounwind uwtable
define internal noundef nonnull align 8 dereferenceable(8) ptr @_ZSt3getILm0EJPFvPN12_GLOBAL__N_118LockWhenTestStructEES2_EEONSt13tuple_elementIXT_ESt5tupleIJDpT0_EEE4typeEOS9_(ptr noundef nonnull align 8 dereferenceable(16) %__t) #7 {
entry:
  %__t.addr = alloca ptr, align 8
  store ptr %__t, ptr %__t.addr, align 8
  %0 = load ptr, ptr %__t.addr, align 8
  %call = call noundef nonnull align 8 dereferenceable(8) ptr @_ZSt12__get_helperILm0EPFvPN12_GLOBAL__N_118LockWhenTestStructEEJS2_EERT0_RSt11_Tuple_implIXT_EJS5_DpT1_EE(ptr noundef nonnull align 8 dereferenceable(16) %0) #3
  ret ptr %call
}

; Function Attrs: mustprogress uwtable
define internal void @_ZNSt6thread8_InvokerISt5tupleIJPFvPN12_GLOBAL__N_118LockWhenTestStructEES4_EEE9_M_invokeIJLm0ELm1EEEEvSt12_Index_tupleIJXspT_EEE(ptr noundef nonnull align 8 dereferenceable(16) %this) #4 align 2 {
entry:
  %this.addr = alloca ptr, align 8
  store ptr %this, ptr %this.addr, align 8
  %this1 = load ptr, ptr %this.addr, align 8
  %_M_t = getelementptr inbounds %"struct.std::thread::_Invoker.169", ptr %this1, i32 0, i32 0
  %call = call noundef nonnull align 8 dereferenceable(8) ptr @_ZSt3getILm0EJPFvPN12_GLOBAL__N_118LockWhenTestStructEES2_EEONSt13tuple_elementIXT_ESt5tupleIJDpT0_EEE4typeEOS9_(ptr noundef nonnull align 8 dereferenceable(16) %_M_t) #3
  %_M_t2 = getelementptr inbounds %"struct.std::thread::_Invoker.169", ptr %this1, i32 0, i32 0
  %call3 = call noundef nonnull align 8 dereferenceable(8) ptr @_ZSt3getILm1EJPFvPN12_GLOBAL__N_118LockWhenTestStructEES2_EEONSt13tuple_elementIXT_ESt5tupleIJDpT0_EEE4typeEOS9_(ptr noundef nonnull align 8 dereferenceable(16) %_M_t2) #3
  call void @_ZSt8__invokeIPFvPN12_GLOBAL__N_118LockWhenTestStructEEJS2_EENSt15__invoke_resultIT_JDpT0_EE4typeEOS6_DpOS7_(ptr noundef nonnull align 8 dereferenceable(8) %call, ptr noundef nonnull align 8 dereferenceable(8) %call3)
  ret void
}

; Function Attrs: mustprogress uwtable
define internal void @_ZNSt6thread8_InvokerISt5tupleIJPFvPN12_GLOBAL__N_118LockWhenTestStructEES4_EEEclEv(ptr noundef nonnull align 8 dereferenceable(16) %this) #4 align 2 {
entry:
  %this.addr = alloca ptr, align 8
  store ptr %this, ptr %this.addr, align 8
  %this1 = load ptr, ptr %this.addr, align 8
  call void @_ZNSt6thread8_InvokerISt5tupleIJPFvPN12_GLOBAL__N_118LockWhenTestStructEES4_EEE9_M_invokeIJLm0ELm1EEEEvSt12_Index_tupleIJXspT_EEE(ptr noundef nonnull align 8 dereferenceable(16) %this1)
  ret void
}

; Function Attrs: mustprogress uwtable
define internal void @_ZNSt6thread11_State_implINS_8_InvokerISt5tupleIJPFvPN12_GLOBAL__N_118LockWhenTestStructEES5_EEEEE6_M_runEv(ptr noundef nonnull align 8 dereferenceable(24) %this) unnamed_addr #4 align 2 {
entry:
  %this.addr = alloca ptr, align 8
  store ptr %this, ptr %this.addr, align 8
  %this1 = load ptr, ptr %this.addr, align 8
  %_M_func = getelementptr inbounds %"struct.std::thread::_State_impl.168", ptr %this1, i32 0, i32 1
  call void @_ZNSt6thread8_InvokerISt5tupleIJPFvPN12_GLOBAL__N_118LockWhenTestStructEES4_EEEclEv(ptr noundef nonnull align 8 dereferenceable(16) %_M_func)
  ret void
}