; Function Attrs: mustprogress uwtable
define internal void @_ZNSt6thread11_State_implINS_8_InvokerISt5tupleIJPFvPN12_GLOBAL__N_118LockWhenTestStructEES5_EEEEE6_M_runEv(ptr nocapture noundef nonnull readonly align 8 dereferenceable(24) %this) unnamed_addr #3 align 2 {
entry:
  %_M_func = getelementptr inbounds i8, ptr %this, i64 8
  %_M_func.val = load ptr, ptr %_M_func, align 8
  %0 = getelementptr inbounds i8, ptr %this, i64 16
  %_M_func.val1 = load ptr, ptr %0, align 8
  tail call void %_M_func.val1(ptr noundef %_M_func.val)
  ret void
}